MPASM 5.68                   214505927P4.ASM   9-25-2016  16:26:42         PAGE  1


LOC  OBJECT CODE     LINE SOURCE TEXT
  VALUE

                      00001 ;*******************************************************************************
                      00002 ;                                                                              *
                      00003 ;    Filename: Project 4                                                       *
                      00004 ;    Date: 15 September 2016                                                   *
                      00005 ;    File Version: 1                                                           *
                      00006 ;    Author: Muhammad Vaid                                                     *
                      00007 ;    Company: University of Kwa-Zulu Natal                                     *
                      00008 ;    Description: Digital Thermometer and Alarm                                *
                      00009 ;                                                                              *
                      00010 ;*******************************************************************************
                      00011 
                      00012 ;*******************************************************************************
                      00013 ; Processor Inclusion
                      00014 ;
                      00015 ; TODO Step #1 Open the task list under Window > Tasks.  Include your
                      00016 ; device .inc file - e.g. #include <device_name>.inc.  Available
                      00017 ; include files are in C:\Program Files\Microchip\MPLABX\mpasmx
                      00018 ; assuming the default installation path for MPLAB X.  You may manually find
                      00019 ; the appropriate include file for your device here and include it, or
                      00020 ; simply copy the include generated by the configuration bits
                      00021 ; generator (see Step #2).
                      00022 ;
                      00023 ;*******************************************************************************
                      00024 
                      00025 ; TODO INSERT INCLUDE CODE HERE
                      00026 #include "p16F690.inc"
                      00001         LIST
                      00002 
                      00003 ;==========================================================================
                      00004 ; Build date : May 15 2016
                      00005 ;  MPASM PIC16F690 processor include
                      00006 ; 
                      00007 ;  (c) Copyright 1999-2016 Microchip Technology, All rights reserved
                      00008 ;==========================================================================
                      00009 
                      00757         LIST
                      00027 ;*******************************************************************************
                      00028 ;
                      00029 ; TODO Step #2 - Configuration Word Setup
                      00030 ;
                      00031 ; The 'CONFIG' directive is used to embed the configuration word within the
                      00032 ; .asm file. MPLAB X requires users to embed their configuration words
                      00033 ; into source code.  See the device datasheet for additional information
                      00034 ; on configuration word settings.  Device configuration bits descriptions
                      00035 ; are in C:\Program Files\Microchip\MPLABX\mpasmx\P<device_name>.inc
                      00036 ; (may change depending on your MPLAB X installation directory).
                      00037 ;
                      00038 ; MPLAB X has a feature which generates configuration bits source code.  Go to
                      00039 ; Window > PIC Memory Views > Configuration Bits.  Configure each field as
                      00040 ; needed and select 'Generate Source Code to Output'.  The resulting code which
                      00041 ; appears in the 'Output Window' > 'Config Bits Source' tab may be copied
                      00042 ; below.
                      00043 ;
MPASM 5.68                   214505927P4.ASM   9-25-2016  16:26:42         PAGE  2


LOC  OBJECT CODE     LINE SOURCE TEXT
  VALUE

                      00044 ;*******************************************************************************
                      00045 
                      00046 ; TODO INSERT CONFIG HERE
                      00047 ; CONFIG
                      00048 ; __config 0xFFFF
Warning[205]: Found directive in column 1. (__CONFIG)
2007   3FF7           00049 __CONFIG _FOSC_EXTRCCLK & _WDTE_OFF & _PWRTE_OFF & _MCLRE_ON & _CP_OFF & _CPD_OFF & _BOREN_ON & _IESO_ON
                             & _FCMEN_ON
                      00050 
                      00051 ;*******************************************************************************
                      00052 ; TODO Step #3 - Variable Definitions
                      00053 ;*******************************************************************************
                      00054 ; TODO PLACE VARIABLE DEFINITIONS GO HERE
                      00055 ;---------------------------------
                      00056 ;Delay
  00000031            00057 d1 equ 0x31             ;Used in Delay
  00000032            00058 d2 equ 0x32             ;Used in Delay
  00000033            00059 d3 equ 0x33
                      00060 ;---------------------------------
                      00061 ;Timer2
  00000034            00062 flag equ 0x34           ;Used to generate PWM
  00000056            00063 alarmOn equ 0x56
                      00064 ;---------------------------------
                      00065 ;Timer1
  00000035            00066 isFour equ 0x35
  00000036            00067 tempFlag equ 0x36
  00000037            00068 timer equ 0x37
                      00069  
                      00070 ;---------------------------------
                      00071 ;Display
  00000038            00072 Display equ 0x38                ;Current count value
  00000039            00073 Check equ 0x39          ;Used to switch between SSDs - Only one SSD is lit per cycle
  00000040            00074 Units equ 0x40          ;Store Units value
  00000041            00075 Tens equ 0x41           ;Store Tens value
  00000042            00076 Quot equ 0x42
  00000043            00077 temp1 equ 0x43          ;Temporary register
  00000055            00078 flickSpeed equ 0x55
                      00079      
                      00080 ;---------------------------------
                      00081 ;Main
  00000044            00082 MODE0 equ 0x44
  00000045            00083 MODE1 equ 0x45
  00000046            00084 MODE2 equ 0x46 
  00000047            00085 temp equ 0x47
  00000048            00086 buttonClicked equ 0x48  
                      00087     
                      00088 ;---------------------------------
                      00089 ;Context Saving
  00000049            00090 W_TEMP equ 0x49             
  00000050            00091 STATUS_TEMP equ 0x50    
                      00092  
                      00093 ;---------------------------------
                      00094 ;Temperature
MPASM 5.68                   214505927P4.ASM   9-25-2016  16:26:42         PAGE  3


LOC  OBJECT CODE     LINE SOURCE TEXT
  VALUE

  00000051            00095 temperature equ 0x51    ;Temperature Reading from ADC
  00000052            00096 tempLow equ 0x52        ;Lower Bound for temperature
  00000053            00097 tempHigh equ 0x53       ;Upper bound for temperature
  00000054            00098 mode equ 0x54           ;Run MODE(0), SETUP LOW MODE(1), SETUP HIGH MODE(2)  
                      00099 ;0x56  
                      00100 ;*******************************************************************************
                      00101 ; Reset Vector
                      00102 ;*******************************************************************************
                      00103 
                      00104 RES_VECT  CODE    0x0000            ; processor reset vector
0000   2???           00105     GOTO    SETUP                   ; go to beginning of program
                      00106 
                      00107 ;*******************************************************************************
                      00108 ; TODO Step #4 - Interrupt Service Routines
                      00109 ;
                      00110 ;------------------------------PIC16's and below--------------------------------
                      00111 ISR CODE 0x0004         ;interrupt vector location
                      00112  
                      00113  ;------------CONTEXT SAVING----------------- 
0004   00C9           00114     MOVWF W_TEMP 
0005   0E03           00115     SWAPF STATUS,W 
0006   0183           00116     CLRF STATUS 
0007   00D0           00117     MOVWF STATUS_TEMP 
                      00118 ;-------------------------------------------- 
Warning[207]: Found label after column 1. (Inter)
0008                  00119     Inter
0008   1D0B           00120     BTFSS INTCON,T0IF   ;ensure flag is set
0009   2???           00121     goto CHECK_T1
000A   2???           00122     goto ISR_TIMER0
                      00123     
Warning[207]: Found label after column 1. (CHECK_T1)
000B                  00124     CHECK_T1
000B   1C0C           00125     BTFSS PIR1,TMR1IF           ;Check for Timer1 Interrupt
000C   2???           00126     goto CHECK_T2
000D   2???           00127     goto TIMER1_OVERFLOW
                      00128     
Warning[207]: Found label after column 1. (CHECK_T2)
000E                  00129     CHECK_T2                    
000E   1C8C           00130     BTFSS PIR1,TMR2IF           ;Check for Timer2 Interrupt
000F   0009           00131     RETFIE
0010   2???           00132     goto ISR_TIMER2
                      00133     
                      00134 ;*******************************************************************************
                      00135 ; SETUP
                      00136 ;*******************************************************************************
                      00137 ;Set RB6 for START (Input Pin)
                      00138 ;Set RA4(Unit's 7-Seg) (Output Pin)  (Fixed) (Left)
                      00139 ;Set RA0(Ten's 7-Seg) (Output Pin) (Right)
                      00140 ;Set PortC as output for 7-segs
                      00141 ;--------------------------------------------------------------
                      00142 
Warning[207]: Found label after column 1. (SETUP)
0011                  00143    SETUP
MPASM 5.68                   214505927P4.ASM   9-25-2016  16:26:42         PAGE  4


LOC  OBJECT CODE     LINE SOURCE TEXT
  VALUE

0011   1683           00144     bsf STATUS,5    ;switch to bank 1
                      00145     
Message[302]: Register in operand not in bank 0.  Ensure that bank bits are correct.
0012   1206           00146     BCF TRISB,4     ;Tens BJT - output
Message[302]: Register in operand not in bank 0.  Ensure that bank bits are correct.
0013   1286           00147     BCF TRISB,5     ;Units BJT - output
Message[302]: Register in operand not in bank 0.  Ensure that bank bits are correct.
0014   1105           00148     BCF TRISA,2     ;Units BJT - output
Message[302]: Register in operand not in bank 0.  Ensure that bank bits are correct.
0015   1786           00149     BSF TRISB,7     ;Up Switch - input
Message[302]: Register in operand not in bank 0.  Ensure that bank bits are correct.
0016   1706           00150     BSF TRISB,6     ;Down Switch - input
                      00151         
0017   3000           00152     MOVLW 0x00      
Message[302]: Register in operand not in bank 0.  Ensure that bank bits are correct.
0018   0087           00153     MOVWF TRISC     ;7-Segment Display - output
                      00154         
0019   1283 1703      00155     BANKSEL ANSEL
                      00156     
Message[302]: Register in operand not in bank 0.  Ensure that bank bits are correct.
001B   019E           00157     clrf ANSEL
Message[302]: Register in operand not in bank 0.  Ensure that bank bits are correct.
001C   019F           00158     clrf ANSELH
Message[302]: Register in operand not in bank 0.  Ensure that bank bits are correct.
001D   149E           00159     BSF ANSEL,1     ;Analog Select for Vref
Message[302]: Register in operand not in bank 0.  Ensure that bank bits are correct.
001E   141E           00160     BSF ANSEL,0     ;Analog select for pin RA0    
                      00161     
001F   1283 1303      00162     BANKSEL PORTA
                      00163         
                      00164 ;--------------------------------------------------------------
                      00165 ; Timer 0 Interrupt
                      00166 ;--------------------------------------------------------------
0021   1683           00167     BSF STATUS,5    
0022   3007           00168     MOVLW   b'00000111'
                      00169             ; -----111 prescalar 1:256
                      00170             ; ----0--- prescaler assigned to timer0
                      00171             ; ---0---- Edge Select
                      00172             ; --0----- Used as a timer
                      00173             ; -0------ Set external interrupt off (for now)
                      00174             ; 0------- Disable pull-up resistors
                      00175             
Message[302]: Register in operand not in bank 0.  Ensure that bank bits are correct.
0023   0081           00176     MOVWF OPTION_REG
0024   1283           00177     BCF STATUS,5    
0025   30D7           00178     MOVLW d'215'            ;REQUIRED NUMBER OF STEPS:67 (~60Hz)
0026   0081           00179     MOVWF TMR0              ;INITIAL STEP VALUE         
                      00180 ;--------------------------------------------------------------
                      00181 ; Timer 1 Interrupt
                      00182 ;--------------------------------------------------------------
0027   1283 1303      00183     BANKSEL T1CON
0029   3031           00184     MOVLW   b'00110001'
                      00185             ; -------1 Enables Timer1
MPASM 5.68                   214505927P4.ASM   9-25-2016  16:26:42         PAGE  5


LOC  OBJECT CODE     LINE SOURCE TEXT
  VALUE

                      00186             ; ------0- Internal Clock
                      00187             ; -----0-- Bit Ignored
                      00188             ; ----0--- Bit Ignored
                      00189             ; --11---- Prescalar 8
                      00190             ; -0------ Timer1 is on
                      00191             ; 0------- Bit Ignored
002A   0090           00192     MOVWF T1CON
                      00193     
002B   30DC           00194     movlw 0xDC ; Start timer at 0BDCh
002C   008E           00195     movwf TMR1L ; which allows 62,500
002D   300B           00196     movlw 0x0B ; clocks until the
002E   008F           00197     movwf TMR1H ; timer overflows. 
                      00198     ;--------------------------------------------------------------     
                      00199     
002F   1683 1303      00200     BANKSEL ADCON1
0031   3050           00201     MOVLW b'01010000'
Message[302]: Register in operand not in bank 0.  Ensure that bank bits are correct.
0032   009F           00202     MOVWF ADCON1    
                      00203     
0033   1283 1303      00204     BANKSEL ADCON0
0035   3041           00205     MOVLW   b'01000001'
                      00206             ; -------1 ADC Enabled
                      00207             ; ------0- ADC not in progress
                      00208             ; --0000-- AN0 - Channel Select
                      00209             ; -1------ External Vref
                      00210             ; 0------- Left Justified 
0036   009F           00211     MOVWF ADCON0 
0037   1283 1303      00212     BANKSEL PORTA
                      00213 ;*******************************************************************************
                      00214     ;INITIALISE
                      00215 ;*******************************************************************************
0039   1683 1303      00216     BANKSEL PIE1            ;Enable Interrupt
Message[302]: Register in operand not in bank 0.  Ensure that bank bits are correct.
003B   140C           00217     BSF PIE1,TMR1IE
003C   1283 1303      00218     BANKSEL PIR1            ;CLEAR FLAG
003E   100C           00219     BCF PIR1,TMR1IF
                      00220     
003F   1283 1303      00221     BANKSEL INTCON 
0041   168B           00222     BSF INTCON,T0IE         ;Timer 0 Interrupt set on        
0042   110B           00223     BCF INTCON,T0IF         ;clear interrupt flag    
0043   178B           00224     BSF INTCON,GIE          ;Set Global Interrupts on
0044   1283 1303      00225     BANKSEL PORTA 
                      00226     
                      00227     
                      00228     ;clear ports
0046   1105           00229     bcf PORTA,2
0047   1286           00230     bcf PORTB,5    
0048   1306           00231     bcf PORTB,6
0049   1386           00232     bcf PORTB,7
004A   1206           00233     bcf PORTB,4
                      00234     ;clear registers
004B   0103           00235     CLRW
004C   01B9           00236     CLRF Check
MPASM 5.68                   214505927P4.ASM   9-25-2016  16:26:42         PAGE  6


LOC  OBJECT CODE     LINE SOURCE TEXT
  VALUE

004D   01B8           00237     CLRF Display
004E   01C0           00238     CLRF Units
004F   01C1           00239     CLRF Tens
0050   01C2           00240     CLRF Quot
0051   01C3           00241     CLRF temp1
0052   01B5           00242     CLRF isFour
0053   01B6           00243     CLRF tempFlag
0054   01D1           00244     CLRF temperature
0055   01D5           00245     CLRF flickSpeed
                      00246 ;-------------------------------------------------------------- 
                      00247     ;set registers
0056   30DC           00248     movlw d'220'
0057   00D5           00249     movwf flickSpeed
                      00250     
0058   301E           00251     movlw d'30'
0059   00D3           00252     movwf tempHigh    
                      00253 
005A   300F           00254     movlw d'15'
005B   00D2           00255     movwf tempLow 
                      00256     
005C   3000           00257     movlw d'0'
005D   00D4           00258     movwf mode
005E   00C4           00259     movwf MODE0
005F   3001           00260     movlw d'1'
0060   00C5           00261     movwf MODE1
0061   3002           00262     movlw d'2'
0062   00C6           00263     movwf MODE2
0063   0103           00264     clrw
                      00265 ;-------------------------------------------------------------- 
                      00266 ;*******************************************************************************
                      00267     ;MACROS
                      00268 ;*******************************************************************************    
                      00269 BEQ MACRO REG1, REG2, DEST      ; branch if REG1 == REG2
                      00270     movf REG2, W                        ; W &lt;- REG2
                      00271     subwf REG1, W                       ; W &lt;- REG1 - REG2
                      00272     btfsc STATUS, Z             ; if result was nonzero: skip out
                      00273     goto DEST                   ; otherwise jump
                      00274     ENDM    
                      00275 
                      00276 BNEQ MACRO REG1, REG2, DEST     ; branch if REG1 == REG2
                      00277     movf REG2, W                        ; W &lt;- REG2
                      00278     subwf REG1, W                       ; W &lt;- REG1 - REG2
                      00279     btfss STATUS, Z             ; if result was nonzero: skip out
                      00280     goto DEST                   ; otherwise jump
                      00281     ENDM      
                      00282 
                      00283 BGTE MACRO REG1, REG2, DEST     ; branch if REG1 >= REG2
                      00284     movf REG2, W                        ; W &lt;- REG2
                      00285     subwf REG1, W                       ; W &lt;- REG1 - REG2    
                      00286     btfsc STATUS, C
                      00287     GOTO DEST
                      00288     ENDM  
                      00289     
MPASM 5.68                   214505927P4.ASM   9-25-2016  16:26:42         PAGE  7


LOC  OBJECT CODE     LINE SOURCE TEXT
  VALUE

                      00290 BLT MACRO REG1, REG2, DEST      ; branch if REG1 < REG2
                      00291     movf REG2, W                        ; W &lt;- REG2
                      00292     subwf REG1, W                       ; W &lt;- REG1 - REG2    
                      00293     btfss STATUS, C
                      00294     GOTO DEST
                      00295     ENDM      
                      00296      
                      00297 
                      00298 ;*******************************************************************************
                      00299 ; MAIN PROGRAM
                      00300 ;*******************************************************************************
                      00301 
Warning[207]: Found label after column 1. (MAIN_PROG)
                      00302  MAIN_PROG CODE
                      00303   
0000                  00304 START
                      00305     BEQ mode,MODE0,RUN_MODE
0000   0844               M     movf MODE0, W                       ; W &lt;- REG2
0001   0254               M     subwf mode, W                       ; W &lt;- REG1 - REG2
0002   1903               M     btfsc STATUS, Z             ; if result was nonzero: skip out
0003   2???               M     goto RUN_MODE               ; otherwise jump
                      00306     BEQ mode,MODE1,Setup_LOW
0004   0845               M     movf MODE1, W                       ; W &lt;- REG2
0005   0254               M     subwf mode, W                       ; W &lt;- REG1 - REG2
0006   1903               M     btfsc STATUS, Z             ; if result was nonzero: skip out
0007   2???               M     goto Setup_LOW              ; otherwise jump
                      00307     BEQ mode,MODE2,Setup_HIGH
0008   0846               M     movf MODE2, W                       ; W &lt;- REG2
0009   0254               M     subwf mode, W                       ; W &lt;- REG1 - REG2
000A   1903               M     btfsc STATUS, Z             ; if result was nonzero: skip out
000B   2???               M     goto Setup_HIGH             ; otherwise jump
000C   2???           00308     goto START
                      00309 
000D                  00310 RUN_MODE
000D   3000           00311     movlw d'0'                  ;change mode
000E   00D4           00312     movwf mode
000F   30DC           00313     movlw d'220'
0010   00D5           00314     movwf flickSpeed
0011   2???           00315     call Delay05s
0012   2???           00316     call Delay05s
0013   0851           00317     MOVFW temperature
0014   00B8           00318     MOVWF Display  
                      00319     ;call DELAY_0.5s
                      00320    
0015                  00321 ALARM  
                      00322 ;    BGTE temperature,tempHigh,START_ALARM
0015   0853           00323     movfw tempHigh
Message[305]: Using default destination of 1 (file).
0016   02D1           00324     subwf temperature
                      00325    
0017   1C03           00326     BTFSS STATUS,C              ;will skip if temp > high
0018   2???           00327     GOTO AlarmOff
0019   2???           00328     call START_ALARM
MPASM 5.68                   214505927P4.ASM   9-25-2016  16:26:42         PAGE  8


LOC  OBJECT CODE     LINE SOURCE TEXT
  VALUE

001A   2???           00329     GOTO UP0
                      00330     
001B                  00331 AlarmOff
001B   2???           00332     call STOP_ALARM
001C                  00333 UP0
001C   1F86           00334     BTFSS PORTB,7               ;check if Up button is pressed
001D   2???           00335     goto DOWN0          ;if not check Down button
001E   2???           00336     call DELAY_10ms             
001F   1F86           00337     BTFSS PORTB,7
0020   2???           00338     goto DOWN0
                      00339     ;UP clicked
0021   01B7           00340     clrf timer
0022   1448           00341     bsf buttonClicked,0
                      00342         
Warning[207]: Found label after column 1. (Check_ReleaseUP)
0023                  00343     Check_ReleaseUP
0023   1C48           00344     BTFSS buttonClicked,0
0024   2???           00345     GOTO JUMPUP0                    
0025   1048           00346     bcf buttonClicked,0     ;if set - reset timer and clear flag
0026   01B7           00347     clrf timer
Warning[207]: Found label after column 1. (JUMPUP0)
0027                  00348     JUMPUP0
                      00349         BGTE timer,MODE2,High_Mode      ;if held up for 2s go to setup high
0027   0846               M     movf MODE2, W                       ; W &lt;- REG2
0028   0237               M     subwf timer, W                      ; W &lt;- REG1 - REG2    
0029   1803               M     btfsc STATUS, C
002A   2???               M     GOTO High_Mode
002B   1B86           00350     BTFSC PORTB,7
002C   2???           00351     GOTO Check_ReleaseUP
002D   2???           00352     Goto Continue0
                      00353     
Warning[207]: Found label after column 1. (DOWN0)
002E                  00354  DOWN0 
002E   1F06           00355     BTFSS PORTB,6               ;check if Down button is pressed
002F   2???           00356     goto Continue0              ;if not, go back to start of loop
0030   2???           00357     call DELAY_10ms
0031   1F06           00358     BTFSS PORTB,6
0032   2???           00359     goto Continue0 
                      00360     ;DOWN clicked
0033   01B7           00361     clrf timer
0034   1448           00362     bsf buttonClicked,0
                      00363     
Warning[207]: Found label after column 1. (Check_ReleaseDOWN)
0035                  00364     Check_ReleaseDOWN
0035   1C48           00365     BTFSS buttonClicked,0
0036   2???           00366     GOTO JUMPDOWN0          
0037   1048           00367     bcf buttonClicked,0     ;if set - reset timer and clear flag
0038   01B7           00368     clrf timer
Warning[207]: Found label after column 1. (JUMPDOWN0)
0039                  00369     JUMPDOWN0 
                      00370         BGTE timer,MODE2,Low_Mode           ;if held down for 2s go to setup LOW
0039   0846               M     movf MODE2, W                       ; W &lt;- REG2
003A   0237               M     subwf timer, W                      ; W &lt;- REG1 - REG2    
MPASM 5.68                   214505927P4.ASM   9-25-2016  16:26:42         PAGE  9


LOC  OBJECT CODE     LINE SOURCE TEXT
  VALUE

003B   1803               M     btfsc STATUS, C
003C   2???               M     GOTO Low_Mode
003D   1B06           00371     BTFSC PORTB,6
003E   2???           00372     GOTO Check_ReleaseDOWN
                      00373     
Warning[207]: Found label after column 1. (Continue0)
003F                  00374  Continue0
003F   01B7           00375     clrf timer
0040   1048           00376     bcf buttonClicked,0
0041   2???           00377     GOTO START
                      00378 
0042                  00379 Low_Mode
0042   2???           00380     call STOP_ALARM
0043   01B7           00381     clrf timer
0044   3001           00382     movlw d'1'                  ;change mode
0045   00D4           00383     movwf mode
0046   30B4           00384     movlw d'180'
0047   00D5           00385     movwf flickSpeed
                      00386     
0048                  00387 Setup_LOW
0048   0852           00388     movfw tempLow               ;move count to W register
0049   00B8           00389     movwf Display
                      00390 ;    BTFSS flag1,0
                      00391 ;    GOTO JUMPLow                   
                      00392 ;    bcf flag1,0            ;if set - reset timer and clear flag
                      00393 ;    clrf timer
                      00394 ;    JUMPLow
                      00395         BGTE timer,MODE2,RUN_MODE           ;if held down for 2s go to setup LOW
004A   0846               M     movf MODE2, W                       ; W &lt;- REG2
004B   0237               M     subwf timer, W                      ; W &lt;- REG1 - REG2    
004C   1803               M     btfsc STATUS, C
004D   2???               M     GOTO RUN_MODE
                      00396 
                      00397     ;if timer not clear, clear it
                      00398     ;if timer>2sec, write temp_low to eeprom and set mode to 0
Warning[207]: Found label after column 1. (UP1)
004E                  00399  UP1
004E   1F86           00400     BTFSS PORTB,7               ;check if Up button is pressed
004F   2???           00401     goto DOWN1                  ;if not check Down button
0050   2???           00402     call DELAY_10ms             
0051   1F86           00403     BTFSS PORTB,7
0052   2???           00404     goto DOWN1
0053   01B7           00405     clrf timer
0054   0AD2           00406     incf tempLow,1
                      00407     ;UP clicked - reset timer and inc temp_low
0055   2???           00408     Goto Continue1
                      00409     
Warning[207]: Found label after column 1. (DOWN1)
0056                  00410  DOWN1 
0056   1F06           00411     BTFSS PORTB,6               ;check if Down button is pressed
0057   2???           00412     goto START          ;if not, go back to start of loop
0058   2???           00413     call DELAY_10ms
0059   1F06           00414     BTFSS PORTB,6
MPASM 5.68                   214505927P4.ASM   9-25-2016  16:26:42         PAGE 10


LOC  OBJECT CODE     LINE SOURCE TEXT
  VALUE

005A   2???           00415     goto START 
                      00416     ;DOWN clicked - reset timer and dec temp_low
005B   01B7           00417     clrf timer
005C   03D2           00418     decf tempLow,1
005D   2???           00419     Goto Continue1
                      00420     
Warning[207]: Found label after column 1. (Continue1)
005E                  00421     Continue1
                      00422    ; MOVFW tempLow              ;move count to W register
                      00423    ; movwf Display
                      00424     
Warning[207]: Found label after column 1. (Check_Release1)
005E                  00425  Check_Release1
005E   01B7           00426     clrf timer
005F   1B86           00427     BTFSC PORTB,7
0060   2???           00428     GOTO Check_Release1
0061   1B06           00429     BTFSC PORTB,6
0062   2???           00430     GOTO Check_Release1
0063   2???           00431     goto START
                      00432     
0064                  00433 High_Mode    
0064   2???           00434     call STOP_ALARM
0065   01B7           00435     clrf timer
0066   3002           00436     movlw d'2'                  ;change mode
0067   00D4           00437     movwf mode
0068   30B4           00438     movlw d'180'
0069   00D5           00439     movwf flickSpeed
                      00440     
006A                  00441 Setup_HIGH
006A   0853           00442     movfw tempHigh              ;move count to W register
006B   00B8           00443     movwf Display
                      00444 ;    BTFSS flag1,0
                      00445 ;    GOTO JUMPHigh          
                      00446 ;    bcf flag1,0            ;if set - reset timer and clear flag
                      00447 ;    clrf timer
                      00448 ;    JUMPHigh
                      00449         BGTE timer,MODE2,RUN_MODE
006C   0846               M     movf MODE2, W                       ; W &lt;- REG2
006D   0237               M     subwf timer, W                      ; W &lt;- REG1 - REG2    
006E   1803               M     btfsc STATUS, C
006F   2???               M     GOTO RUN_MODE
                      00450 
                      00451     
                      00452     ;mode = 2
                      00453     ;if timer not set, set it
                      00454     ;if timer>2sec, write temp_high to eeprom and set mode to 0
Warning[207]: Found label after column 1. (UP2)
0070                  00455  UP2
0070   1F86           00456     BTFSS PORTB,7               ;check if Up button is pressed
0071   2???           00457     goto DOWN2          ;if not check Down button
0072   2???           00458     call DELAY_10ms             
0073   1F86           00459     BTFSS PORTB,7
0074   2???           00460     goto DOWN2
MPASM 5.68                   214505927P4.ASM   9-25-2016  16:26:42         PAGE 11


LOC  OBJECT CODE     LINE SOURCE TEXT
  VALUE

0075   01B7           00461     clrf timer
0076   0AD3           00462     incf tempHigh,1
                      00463     ;UP clicked - reset timer and inc temp_high
0077   2???           00464     Goto Continue2
                      00465     
Warning[207]: Found label after column 1. (DOWN2)
0078                  00466  DOWN2
0078   1F06           00467     BTFSS PORTB,6               ;check if Down button is pressed
0079   2???           00468     goto START          ;if not, go back to start of loop
007A   2???           00469     call DELAY_10ms
007B   1F06           00470     BTFSS PORTB,6
007C   2???           00471     goto START 
007D   01B7           00472     clrf timer
007E   03D3           00473     decf tempHigh,1
                      00474     ;DOWN clicked - reset timer and dec temp_high
007F   2???           00475     Goto Continue2
                      00476     
Warning[207]: Found label after column 1. (Continue2)
0080                  00477     Continue2
0080   0853           00478     MOVFW tempHigh              ;move count to W register
0081   00B8           00479     movwf Display
                      00480     
Warning[207]: Found label after column 1. (Check_Release2)
0082                  00481  Check_Release2
0082   01B7           00482     clrf timer
0083   1B86           00483     BTFSC PORTB,7
0084   2???           00484     GOTO Check_Release2
0085   1B06           00485     BTFSC PORTB,6
0086   2???           00486     GOTO Check_Release2
0087   2???           00487     goto START  
                      00488 ;*******************************************************************************
                      00489     ;Interrupt Service Routine - Timer1
                      00490 ;*******************************************************************************    
Warning[207]: Found label after column 1. (TIMER1_OVERFLOW)
0088                  00491    TIMER1_OVERFLOW
0088   1010           00492     bcf T1CON,0 ; Turn the timer off.
0089   100C           00493     BCF PIR1,TMR1IF 
008A   30DC           00494     movlw 0xDC ; Start timer at 0BDCh
008B   008E           00495     movwf TMR1L ; which allows 62,500
008C   300B           00496     movlw 0x0B ; clocks until the
008D   008F           00497     movwf TMR1H ; timer overflows.
                      00498     
008E   1836           00499     BTFSC tempFlag,0        ;Used to toggle pin using flag
008F   2???           00500     goto SET_IT
                      00501     ;BCF PORTA,2
0090   1436           00502     BSF tempFlag,0
0091   2???           00503     goto DONE1
                      00504     
0092                  00505 SET_IT
                      00506     ;BSF PORTA,2
0092   1036           00507     BCF tempFlag,0   
                      00508       
0093                  00509 DONE1
MPASM 5.68                   214505927P4.ASM   9-25-2016  16:26:42         PAGE 12


LOC  OBJECT CODE     LINE SOURCE TEXT
  VALUE

Message[305]: Using default destination of 1 (file).
0093   0AB5           00510     incf isFour
0094   0835           00511     movfw isFour
0095   3C02           00512     sublw d'2'
0096   1D03           00513     btfss STATUS,Z      ; if isFOur = 4, Count++ - Every 4 interrupts one sec passes
0097   2???           00514     goto NotFour
0098   01B5           00515     clrf isFour
Message[305]: Using default destination of 1 (file).
0099   0AB7           00516     incf timer
                      00517         
Warning[207]: Found label after column 1. (NotFour)
009A                  00518     NotFour
009A   1410           00519     bsf T1CON,0 ; Turn the timer back on.
                      00520     
                      00521 ;-----------Context Saving-----------------                
009B   0E50           00522     SWAPF STATUS_TEMP,W
009C   0083           00523     MOVWF STATUS 
009D   0EC9           00524     SWAPF W_TEMP,F 
009E   0E49           00525     SWAPF W_TEMP,W   
                      00526 ;-------------------------------------------   
                      00527     
009F   2???           00528     goto CHECK_T2
                      00529 ;*******************************************************************************
                      00530     ;Interrupt Service Routine - TIMER2 - PWM
                      00531 ;*******************************************************************************         
00A0                  00532 ISR_TIMER2
00A0   1834           00533     BTFSC flag,0            ;Used to toggle pin using flag
00A1   2???           00534     goto SET_IT2
00A2   1105           00535     BCF PORTA,2
00A3   1434           00536     BSF flag,0
00A4   2???           00537     goto DONE2
                      00538     
00A5                  00539 SET_IT2
00A5   1505           00540     BSF PORTA,2
00A6   1034           00541     BCF flag,0   
                      00542     
                      00543     
00A7                  00544 DONE2    
00A7   1283 1303      00545     BANKSEL PIR1
00A9   108C           00546     BCF PIR1,TMR2IF         ;Clear Flag
00AA   1283 1303      00547     BANKSEL PORTA
                      00548 
                      00549     
                      00550 ;-----------Context Saving-----------------                
00AC   0E50           00551     SWAPF STATUS_TEMP,W
00AD   0083           00552     MOVWF STATUS 
00AE   0EC9           00553     SWAPF W_TEMP,F 
00AF   0E49           00554     SWAPF W_TEMP,W   
                      00555 ;-------------------------------------------     
                      00556  
00B0   0009           00557     RETFIE 
                      00558     
                      00559 ;*******************************************************************************
MPASM 5.68                   214505927P4.ASM   9-25-2016  16:26:42         PAGE 13


LOC  OBJECT CODE     LINE SOURCE TEXT
  VALUE

                      00560     ;Interrupt Service Routine - Timer0 (Overflow) - Multiplexing & Display
                      00561 ;*******************************************************************************    
00B1                  00562 ISR_TIMER0
                      00563     BNEQ mode,MODE0,Cont
00B1   0844               M     movf MODE0, W                       ; W &lt;- REG2
00B2   0254               M     subwf mode, W                       ; W &lt;- REG1 - REG2
00B3   1D03               M     btfss STATUS, Z             ; if result was nonzero: skip out
00B4   2???               M     goto Cont                   ; otherwise jump
00B5   149F           00564     BSF ADCON0,GO
00B6   189F           00565     BTFSC ADCON0,GO             ;Poll for end of conversion
00B7   2???           00566     GOTO $-1
00B8   081E           00567     MOVF ADRESH,W       
00B9   00D1           00568     MOVWF temperature           ;Store value 
                      00569     
Warning[207]: Found label after column 1. (Cont)
00BA                  00570     Cont
00BA   0838           00571     MOVFW Display               ;move count to W register
00BB   2???           00572     Call Binary2BCD             ;method to convert binary to BCD
                      00573    ;Tens and Units are switched on by sending a signal to the base of the corresponding BJT
                      00574    ;If Check = 0 - Turn Tens On
                      00575    ;If Check = 1 - Turn Units On
00BC   1839           00576     BTFSC Check,0
00BD   2???           00577     GOTO DispUnits
                      00578     
00BE                  00579 DispTens
00BE   1206           00580     BCF PORTB,4                 ;Units OFF
00BF   30??           00581     movlw HIGH SSD_Output           ;Avoid PCL Rollover
00C0   008A           00582     movwf PCLATH 
00C1   0841           00583     MOVF Tens,w                 ;move tens value into w
00C2   2???           00584     call SSD_Output             ;Get SSD output value
00C3   0087           00585     MOVWF PORTC                 ;output Tens to SSD
                      00586     
00C4   1439           00587     BSF Check,0
00C5   1686           00588     BSF PORTB,5                 ;Tens ON
00C6   2???           00589     GOTO SET_TIMER              ;skip DispUnits
                      00590    
00C7                  00591 DispUnits
00C7   1286           00592     BCF PORTB,5                 ;Tens OFF
00C8   30??           00593     movlw HIGH SSD_Output           ;Avoid PCL rollover
00C9   008A           00594     movwf PCLATH     
00CA   0840           00595     MOVF Units,w                        ;move units value into w
00CB   2???           00596     call SSD_Output             ;Get SSD output value
00CC   0087           00597     MOVWF PORTC
                      00598    
00CD   1039           00599     BCF Check,0
00CE   1606           00600     BSF PORTB,4                 ;Units ON
                      00601    
00CF                  00602 SET_TIMER    
                      00603 ;-------------RESET TIMER0------------------        
00CF   0855           00604     MOVFW flickSpeed
00D0   0081           00605     MOVWF TMR0      ;Reset step value
00D1   110B           00606     BCF INTCON,T0IF ;Clear Interrupt Flag
                      00607 ;-------------------------------------------       
MPASM 5.68                   214505927P4.ASM   9-25-2016  16:26:42         PAGE 14


LOC  OBJECT CODE     LINE SOURCE TEXT
  VALUE

                      00608 
                      00609 ;-----------Context Saving-----------------                
00D2   0E50           00610     SWAPF STATUS_TEMP,W
00D3   0083           00611     MOVWF STATUS 
00D4   0EC9           00612     SWAPF W_TEMP,F 
00D5   0E49           00613     SWAPF W_TEMP,W   
                      00614 ;-------------------------------------------   
                      00615     
00D6   2???           00616     goto CHECK_T1
                      00617     
                      00618 ;*******************************************************************************        
                      00619 ;ALARM
                      00620 ;*******************************************************************************        
                      00621     
Warning[207]: Found label after column 1. (START_ALARM)
00D7                  00622     START_ALARM
                      00623 ;------------CONTEXT SAVING----------------- 
00D7   00C9           00624     MOVWF W_TEMP 
00D8   0E03           00625     SWAPF STATUS,W 
00D9   0183           00626     CLRF STATUS 
00DA   00D0           00627     MOVWF STATUS_TEMP 
                      00628 ;-------------------------------------------- 
                      00629    
                      00630 ;    movlw d'1'                     
                      00631 ;    movwf temp
                      00632     ;BEQ alarmOn, temp, DONT_START    ;Flag is set? --> ALARM already on --> skip
                      00633     
00DB   1683 1303      00634     BANKSEL TRISB
Message[302]: Register in operand not in bank 0.  Ensure that bank bits are correct.
00DD   1105           00635     BCF TRISA,2
                      00636     
00DE   1683 1303      00637     BANKSEL PIE1
Message[302]: Register in operand not in bank 0.  Ensure that bank bits are correct.
00E0   148C           00638     BSF PIE1,TMR2IE
                      00639 
00E1   1283 1303      00640     BANKSEL T2CON
00E3   3005           00641     MOVLW b'00000101'               ;Configure TMR2 @ 440Hz
00E4   0092           00642     MOVWF T2CON
                      00643  
00E5   1283 1303      00644     BANKSEL PIR1
00E7   108C           00645     BCF PIR1,TMR2IF
                      00646     
00E8   1283 1303      00647     BANKSEL INTCON 
00EA   170B           00648     BSF INTCON,PEIE
00EB   1283 1303      00649     BANKSEL PORTA
                      00650     
00ED   1456           00651     BSF alarmOn,0
                      00652     
00EE                  00653 DONT_START      
                      00654 ;-----------Context Saving-----------------                
00EE   0E50           00655     SWAPF STATUS_TEMP,W
00EF   0083           00656     MOVWF STATUS 
00F0   0EC9           00657     SWAPF W_TEMP,F 
MPASM 5.68                   214505927P4.ASM   9-25-2016  16:26:42         PAGE 15


LOC  OBJECT CODE     LINE SOURCE TEXT
  VALUE

00F1   0E49           00658     SWAPF W_TEMP,W   
                      00659 ;-------------------------------------------   
00F2   0008           00660     return
                      00661     
00F3                  00662 STOP_ALARM
                      00663     
00F3   1683 1303      00664     BANKSEL TRISB           ;Disable pin
Message[302]: Register in operand not in bank 0.  Ensure that bank bits are correct.
00F5   1505           00665     BSF TRISA,2
                      00666     
00F6   1683 1303      00667     BANKSEL PIE1            ;Disable Interrupt
Message[302]: Register in operand not in bank 0.  Ensure that bank bits are correct.
00F8   108C           00668     BCF PIE1,TMR2IE
                      00669  
00F9   1283 1303      00670     BANKSEL PIR1            ;Clear Flag
00FB   108C           00671     BCF PIR1,TMR2IF
                      00672     
00FC   1283 1303      00673     BANKSEL PORTA
00FE   1056           00674     BCF alarmOn,0
                      00675     
                      00676 ;-----------Context Saving-----------------                
00FF   0E50           00677     SWAPF STATUS_TEMP,W
0100   0083           00678     MOVWF STATUS 
0101   0EC9           00679     SWAPF W_TEMP,F 
0102   0E49           00680     SWAPF W_TEMP,W   
                      00681 ;-------------------------------------------   
0103   0008           00682     return 
                      00683          
                      00684 ;*******************************************************************************
                      00685     ;0.5S DELAY        
                      00686 ;*******************************************************************************     
                      00687 
0104                  00688 DELAY_0.5s
                      00689                         ;499994 cycles
0104   3008           00690     movlw       0x08
0105   00B1           00691     movwf       d1
0106   302F           00692     movlw       0x2F
0107   00B2           00693     movwf       d2
0108   3003           00694     movlw       0x03
0109   00B3           00695     movwf       d3
010A                  00696 Delay_01
010A   0BB1           00697     decfsz      d1, f
010B   2???           00698     goto        $+2
010C   0BB2           00699     decfsz      d2, f
010D   2???           00700     goto        $+2
010E   0BB3           00701     decfsz      d3, f
010F   2???           00702     goto        Delay_01
                      00703                         ;6 cycles
0110   2???           00704     goto        $+1
0111   2???           00705     goto        $+1
0112   2???           00706     goto        $+1     
                      00707 
0113   0008           00708     return        
MPASM 5.68                   214505927P4.ASM   9-25-2016  16:26:42         PAGE 16


LOC  OBJECT CODE     LINE SOURCE TEXT
  VALUE

                      00709 ;*******************************************************************************
                      00710     ;10MS DELAY
                      00711 ;*******************************************************************************         
                      00712 
0114                  00713 DELAY_10ms
                      00714         ;9993 cycles
0114   30E7           00715     movlw 0xE7
0115   00B1           00716     movwf d1
0116   3004           00717     movlw 0x04
0117   00B2           00718     movwf d2
0118                  00719 Delay
0118   0BB1           00720     decfsz d1, f
0119   2???           00721     goto Delay
011A   0BB2           00722     decfsz d2, f
011B   2???           00723     goto Delay
                      00724         ;3 cycles
011C   2???           00725     goto $+1
011D   0000           00726     nop
                      00727         ;4 cycles (including call)       
011E   0008           00728     return
                      00729     
                      00730 ;*******************************************************************************
                      00731     ;SSD Binary corresponding to PORTC configuration
                      00732 ;*******************************************************************************           
                      00733 ;Common Cathode SSD
                      00734 
Warning[207]: Found label after column 1. (SSD_Output)
011F                  00735     SSD_Output
Message[305]: Using default destination of 1 (file).
011F   0782           00736     addwf PCL
                      00737      
0120   345F           00738     retlw b'01011111' ;0
0121   3444           00739     retlw b'01000100' ;1
0122   346B           00740     retlw b'01101011' ;2
0123   346E           00741     retlw b'01101110' ;3
0124   3474           00742     retlw b'01110100' ;4
0125   343E           00743     retlw b'00111110' ;5
0126   343F           00744     retlw b'00111111' ;6
0127   344C           00745     retlw b'01001100' ;7
0128   347F           00746     retlw b'01111111' ;8
0129   347E           00747     retlw b'01111110' ;9    
                      00748     
                      00749 ;*******************************************************************************        
                      00750     ;BINARY TO BCD CONVERSION
                      00751 ;*******************************************************************************                
012A                  00752 Binary2BCD
                      00753 
                      00754     ;store input
012A   00C3           00755     movwf temp1
                      00756     
                      00757     ; If Input>99, exit subroutine
012B   1003           00758     bcf STATUS, C
                      00759     
MPASM 5.68                   214505927P4.ASM   9-25-2016  16:26:42         PAGE 17


LOC  OBJECT CODE     LINE SOURCE TEXT
  VALUE

012C   3C63           00760     sublw d'99' ;if number is less than 99 then carry flag will be set
                      00761     
012D   1C03           00762     btfss STATUS, C     ;Only if carry flag set, continue with conversion
012E   2???           00763     goto EndConv
                      00764  
Warning[207]: Found label after column 1. (Begin)
012F                  00765     Begin
                      00766         ;initialise: quotient = 0
012F   3000           00767     movlw d'0'
0130   00C2           00768     movwf Quot
                      00769         
0131   300A           00770     movlw d'10' ;store 10 in W register
                      00771     
Warning[207]: Found label after column 1. (Divide)
0132                  00772     Divide          ;keep subtracting until value reaches/passes zero
                      00773         
                      00774         ;quotient += 1
0132   0AC2           00775     incf Quot,1
                      00776         ;temp1 -= 10
0133   02C3           00777     subwf temp1,1
                      00778 
                      00779         ;check if result is positive
0134   1803           00780     btfsc STATUS, C     ;if carry flag not set, jump back to divide
0135   2???           00781     goto Divide
                      00782 
0136   1903           00783     btfsc STATUS, Z     ;if zero flag not set, jump back to divide
0137   2???           00784     goto Divide
                      00785 
Warning[207]: Found label after column 1. (EndDivide)
0138                  00786     EndDivide       ;subtracted one time too many. Dec quotient and add 10 back to value
                      00787     
                      00788         ;quotient -= 1
0138   03C2           00789     decf Quot,1
                      00790         ;value += 10
0139   07C3           00791     addwf temp1,1
                      00792         
                      00793         ;Copy quotient value to Tens register
013A   0842           00794     MOVFW Quot
013B   00C1           00795     MOVWF Tens
                      00796         
                      00797         ;Copy remainder value to Units register
013C   0843           00798     MOVFW temp1
013D   00C0           00799     MOVWF Units
                      00800             
013E                  00801 EndConv
                      00802         
013E   0008           00803     return      
                      00804 ;--------------------------------------------------------
013F                  00805 Delay05s
                      00806                 ;99993 cycles
013F   301E           00807     movlw       0x1E
0140   00B1           00808     movwf       d1
0141   304F           00809     movlw       0x4F
MPASM 5.68                   214505927P4.ASM   9-25-2016  16:26:42         PAGE 18


LOC  OBJECT CODE     LINE SOURCE TEXT
  VALUE

0142   00B2           00810     movwf       d2
0143                  00811 Delay05s_0
0143   0BB1           00812     decfsz      d1, f
0144   2???           00813     goto        $+2
0145   0BB2           00814     decfsz      d2, f
0146   2???           00815     goto        Delay05s_0
                      00816 
                      00817                         ;3 cycles
0147   2???           00818     goto        $+1
0148   0000           00819     nop
                      00820 
                      00821                         ;4 cycles (including call)
0149   0008           00822     return
                      00823 
                      00824 ;*******************************************************************************        
3FF7                  00825     END
MPASM 5.68                   214505927P4.ASM   9-25-2016  16:26:42         PAGE 19


SYMBOL TABLE
  LABEL                             VALUE 

ABDEN                             00000000
ABDOVF                            00000007
ADCON0                            0000001F
ADCON1                            0000009F
ADCS0                             00000004
ADCS1                             00000005
ADCS2                             00000006
ADDEN                             00000003
ADFM                              00000007
ADIE                              00000006
ADIF                              00000006
ADON                              00000000
ADRESH                            0000001E
ADRESL                            0000009E
ALARM                             00000015
ANS0                              00000000
ANS1                              00000001
ANS10                             00000002
ANS11                             00000003
ANS2                              00000002
ANS3                              00000003
ANS4                              00000004
ANS5                              00000005
ANS6                              00000006
ANS7                              00000007
ANS8                              00000000
ANS9                              00000001
ANSEL                             0000011E
ANSELH                            0000011F
AlarmOff                          0000001B
BAUDCTL                           0000009B
BEQ                               
BF                                00000000
BGTE                              
BLT                               
BNEQ                              
BRG0                              00000000
BRG1                              00000001
BRG10                             00000002
BRG11                             00000003
BRG12                             00000004
BRG13                             00000005
BRG14                             00000006
BRG15                             00000007
BRG16                             00000003
BRG2                              00000002
BRG3                              00000003
BRG4                              00000004
BRG5                              00000005
BRG6                              00000006
BRG7                              00000007
BRG8                              00000000
BRG9                              00000001
MPASM 5.68                   214505927P4.ASM   9-25-2016  16:26:42         PAGE 20


SYMBOL TABLE
  LABEL                             VALUE 

BRGH                              00000002
Begin                             0000012F
Binary2BCD                        0000012A
C                                 00000000
C1CH0                             00000000
C1CH1                             00000001
C1IE                              00000005
C1IF                              00000005
C1OE                              00000005
C1ON                              00000007
C1OUT                             00000006
C1POL                             00000004
C1R                               00000002
C1SEN                             00000005
C1VREN                            00000007
C2CH0                             00000000
C2CH1                             00000001
C2IE                              00000006
C2IF                              00000006
C2OE                              00000005
C2ON                              00000007
C2OUT                             00000006
C2POL                             00000004
C2R                               00000002
C2REN                             00000004
C2SYNC                            00000000
C2VREN                            00000006
CCP1CON                           00000017
CCP1IE                            00000002
CCP1IF                            00000002
CCP1M0                            00000000
CCP1M1                            00000001
CCP1M2                            00000002
CCP1M3                            00000003
CCPR                              00000015
CCPR1H                            00000016
CCPR1L                            00000015
CHECK_T1                          0000000B
CHECK_T2                          0000000E
CHS0                              00000002
CHS1                              00000003
CHS2                              00000004
CHS3                              00000005
CKE                               00000006
CKP                               00000004
CM1CON0                           00000119
CM2CON0                           0000011A
CM2CON1                           0000011B
CREN                              00000004
CSRC                              00000007
Check                             00000039
Check_Release1                    0000005E
Check_Release2                    00000082
MPASM 5.68                   214505927P4.ASM   9-25-2016  16:26:42         PAGE 21


SYMBOL TABLE
  LABEL                             VALUE 

Check_ReleaseDOWN                 00000035
Check_ReleaseUP                   00000023
Cont                              000000BA
Continue0                         0000003F
Continue1                         0000005E
Continue2                         00000080
D                                 00000005
DATA_ADDRESS                      00000005
DC                                00000001
DC1B0                             00000004
DC1B1                             00000005
DELAY_0.5s                        00000104
DELAY_10ms                        00000114
DONE1                             00000093
DONE2                             000000A7
DONT_START                        000000EE
DOWN0                             0000002E
DOWN1                             00000056
DOWN2                             00000078
D_A                               00000005
D_NOT_A                           00000005
Delay                             00000118
Delay05s                          0000013F
Delay05s_0                        00000143
Delay_01                          0000010A
DispTens                          000000BE
DispUnits                         000000C7
Display                           00000038
Divide                            00000132
ECCPAS                            0000001D
ECCPAS0                           00000004
ECCPAS1                           00000005
ECCPAS2                           00000006
ECCPASE                           00000007
EEADR                             0000010D
EEADRH                            0000010F
EECON1                            0000018C
EECON2                            0000018D
EEDAT                             0000010C
EEDATA                            0000010C
EEDATH                            0000010E
EEIE                              00000004
EEIF                              00000004
EEPGD                             00000007
EndConv                           0000013E
EndDivide                         00000138
F                                 00000001
FERR                              00000002
FSR                               00000004
GIE                               00000007
GO                                00000001
GO_DONE                           00000001
GO_NOT_DONE                       00000001
MPASM 5.68                   214505927P4.ASM   9-25-2016  16:26:42         PAGE 22


SYMBOL TABLE
  LABEL                             VALUE 

HTS                               00000002
High_Mode                         00000064
I2C_DATA                          00000005
I2C_READ                          00000002
I2C_START                         00000003
I2C_STOP                          00000004
INDF                              00000000
INTCON                            0000000B
INTE                              00000004
INTEDG                            00000006
INTF                              00000001
IOC                               00000096
IOC0                              00000000
IOC1                              00000001
IOC2                              00000002
IOC3                              00000003
IOC4                              00000004
IOC5                              00000005
IOCA                              00000096
IOCA0                             00000000
IOCA1                             00000001
IOCA2                             00000002
IOCA3                             00000003
IOCA4                             00000004
IOCA5                             00000005
IOCB                              00000116
IOCB4                             00000004
IOCB5                             00000005
IOCB6                             00000006
IOCB7                             00000007
IRCF0                             00000004
IRCF1                             00000005
IRCF2                             00000006
IRP                               00000007
ISR_TIMER0                        000000B1
ISR_TIMER2                        000000A0
Inter                             00000008
JUMPDOWN0                         00000039
JUMPUP0                           00000027
LTS                               00000001
Low_Mode                          00000042
MC1OUT                            00000007
MC2OUT                            00000006
MODE0                             00000044
MODE1                             00000045
MODE2                             00000046
MSK                               00000093
MSK0                              00000000
MSK1                              00000001
MSK2                              00000002
MSK3                              00000003
MSK4                              00000004
MSK5                              00000005
MPASM 5.68                   214505927P4.ASM   9-25-2016  16:26:42         PAGE 23


SYMBOL TABLE
  LABEL                             VALUE 

MSK6                              00000006
MSK7                              00000007
NOT_A                             00000005
NOT_ADDRESS                       00000005
NOT_BOR                           00000000
NOT_DONE                          00000001
NOT_PD                            00000003
NOT_POR                           00000001
NOT_RABPU                         00000007
NOT_T1SYNC                        00000002
NOT_TO                            00000004
NOT_W                             00000002
NOT_WRITE                         00000002
NotFour                           0000009A
OERR                              00000001
OPTION_REG                        00000081
OSCCON                            0000008F
OSCTUNE                           00000090
OSFIE                             00000007
OSFIF                             00000007
OSTS                              00000003
P                                 00000004
P1M0                              00000006
P1M1                              00000007
PCL                               00000002
PCLATH                            0000000A
PCON                              0000008E
PDC0                              00000000
PDC1                              00000001
PDC2                              00000002
PDC3                              00000003
PDC4                              00000004
PDC5                              00000005
PDC6                              00000006
PEIE                              00000006
PIE1                              0000008C
PIE2                              0000008D
PIR1                              0000000C
PIR2                              0000000D
PORTA                             00000005
PORTB                             00000006
PORTC                             00000007
PR2                               00000092
PRSEN                             00000007
PS0                               00000000
PS1                               00000001
PS2                               00000002
PSA                               00000003
PSSAC0                            00000002
PSSAC1                            00000003
PSSBD0                            00000000
PSSBD1                            00000001
PSTRCON                           0000019D
MPASM 5.68                   214505927P4.ASM   9-25-2016  16:26:42         PAGE 24


SYMBOL TABLE
  LABEL                             VALUE 

PULSR                             00000002
PULSS                             00000003
PWM1CON                           0000001C
Quot                              00000042
R                                 00000002
RA0                               00000000
RA1                               00000001
RA2                               00000002
RA3                               00000003
RA4                               00000004
RA5                               00000005
RABIE                             00000003
RABIF                             00000000
RB4                               00000004
RB5                               00000005
RB6                               00000006
RB7                               00000007
RC0                               00000000
RC1                               00000001
RC2                               00000002
RC3                               00000003
RC4                               00000004
RC5                               00000005
RC6                               00000006
RC7                               00000007
RCIDL                             00000006
RCIE                              00000005
RCIF                              00000005
RCREG                             0000001A
RCSTA                             00000018
RD                                00000000
READ_WRITE                        00000002
RP0                               00000005
RP1                               00000006
RUN_MODE                          0000000D
RX9                               00000006
RX9D                              00000000
R_NOT_W                           00000002
R_W                               00000002
S                                 00000003
SBOREN                            00000004
SCKP                              00000004
SCS                               00000000
SENB                              00000003
SENDB                             00000003
SETUP                             00000011
SET_IT                            00000092
SET_IT2                           000000A5
SET_TIMER                         000000CF
SMP                               00000007
SPBRG                             00000099
SPBRGH                            0000009A
SPEN                              00000007
MPASM 5.68                   214505927P4.ASM   9-25-2016  16:26:42         PAGE 25


SYMBOL TABLE
  LABEL                             VALUE 

SR0                               00000006
SR1                               00000007
SRCON                             0000019E
SREN                              00000005
SSD_Output                        0000011F
SSPADD                            00000093
SSPBUF                            00000013
SSPCON                            00000014
SSPEN                             00000005
SSPIE                             00000003
SSPIF                             00000003
SSPM0                             00000000
SSPM1                             00000001
SSPM2                             00000002
SSPM3                             00000003
SSPMSK                            00000093
SSPOV                             00000006
SSPSTAT                           00000094
START                             00000000
START_ALARM                       000000D7
STATUS                            00000003
STATUS_TEMP                       00000050
STOP_ALARM                        000000F3
STRA                              00000000
STRB                              00000001
STRC                              00000002
STRD                              00000003
STRSYNC                           00000004
SWDTEN                            00000000
SYNC                              00000004
Setup_HIGH                        0000006A
Setup_LOW                         00000048
T0CS                              00000005
T0IE                              00000005
T0IF                              00000002
T0SE                              00000004
T1CKPS0                           00000004
T1CKPS1                           00000005
T1CON                             00000010
T1GINV                            00000007
T1GSS                             00000001
T1IE                              00000000
T1IF                              00000000
T1OSCEN                           00000003
T2CKPS0                           00000000
T2CKPS1                           00000001
T2CON                             00000012
T2IE                              00000001
T2IF                              00000001
TIMER1_OVERFLOW                   00000088
TMR0                              00000001
TMR1                              0000000E
TMR1CS                            00000001
MPASM 5.68                   214505927P4.ASM   9-25-2016  16:26:42         PAGE 26


SYMBOL TABLE
  LABEL                             VALUE 

TMR1GE                            00000006
TMR1H                             0000000F
TMR1IE                            00000000
TMR1IF                            00000000
TMR1L                             0000000E
TMR1ON                            00000000
TMR2                              00000011
TMR2IE                            00000001
TMR2IF                            00000001
TMR2ON                            00000002
TOUTPS0                           00000003
TOUTPS1                           00000004
TOUTPS2                           00000005
TOUTPS3                           00000006
TRISA                             00000085
TRISA0                            00000000
TRISA1                            00000001
TRISA2                            00000002
TRISA3                            00000003
TRISA4                            00000004
TRISA5                            00000005
TRISB                             00000086
TRISB4                            00000004
TRISB5                            00000005
TRISB6                            00000006
TRISB7                            00000007
TRISC                             00000087
TRISC0                            00000000
TRISC1                            00000001
TRISC2                            00000002
TRISC3                            00000003
TRISC4                            00000004
TRISC5                            00000005
TRISC6                            00000006
TRISC7                            00000007
TRMT                              00000001
TUN0                              00000000
TUN1                              00000001
TUN2                              00000002
TUN3                              00000003
TUN4                              00000004
TX9                               00000006
TX9D                              00000000
TXEN                              00000005
TXIE                              00000004
TXIF                              00000004
TXREG                             00000019
TXSTA                             00000098
Tens                              00000041
UA                                00000001
ULPWUE                            00000005
UP0                               0000001C
UP1                               0000004E
MPASM 5.68                   214505927P4.ASM   9-25-2016  16:26:42         PAGE 27


SYMBOL TABLE
  LABEL                             VALUE 

UP2                               00000070
Units                             00000040
VCFG                              00000006
VP6EN                             00000004
VR0                               00000000
VR1                               00000001
VR2                               00000002
VR3                               00000003
VRCON                             00000118
VRR                               00000005
W                                 00000000
WCOL                              00000007
WDTCON                            00000097
WDTPS0                            00000001
WDTPS1                            00000002
WDTPS2                            00000003
WDTPS3                            00000004
WPU                               00000095
WPU0                              00000000
WPU1                              00000001
WPU2                              00000002
WPU4                              00000004
WPU5                              00000005
WPUA                              00000095
WPUA0                             00000000
WPUA1                             00000001
WPUA2                             00000002
WPUA4                             00000004
WPUA5                             00000005
WPUB                              00000115
WPUB4                             00000004
WPUB5                             00000005
WPUB6                             00000006
WPUB7                             00000007
WR                                00000001
WREN                              00000002
WRERR                             00000003
WUE                               00000001
W_TEMP                            00000049
Z                                 00000002
_BOD_NSLEEP                       00003EFF
_BOD_OFF                          00003CFF
_BOD_ON                           00003FFF
_BOD_SBODEN                       00003DFF
_BOREN_NSLEEP                     00003EFF
_BOREN_OFF                        00003CFF
_BOREN_ON                         00003FFF
_BOREN_SBODEN                     00003DFF
_BOR_NSLEEP                       00003EFF
_BOR_OFF                          00003CFF
_BOR_ON                           00003FFF
_BOR_SBODEN                       00003DFF
_CONFIG                           00002007
MPASM 5.68                   214505927P4.ASM   9-25-2016  16:26:42         PAGE 28


SYMBOL TABLE
  LABEL                             VALUE 

_CPD_OFF                          00003FFF
_CPD_ON                           00003F7F
_CP_OFF                           00003FFF
_CP_ON                            00003FBF
_DEVID1                           00002006
_EC_OSC                           00003FFB
_EXTRC                            00003FFF
_EXTRCIO                          00003FFE
_EXTRC_OSC_CLKOUT                 00003FFF
_EXTRC_OSC_NOCLKOUT               00003FFE
_FCMEN_OFF                        000037FF
_FCMEN_ON                         00003FFF
_FOSC_EC                          00003FFB
_FOSC_EXTRCCLK                    00003FFF
_FOSC_EXTRCIO                     00003FFE
_FOSC_HS                          00003FFA
_FOSC_INTRCCLK                    00003FFD
_FOSC_INTRCIO                     00003FFC
_FOSC_LP                          00003FF8
_FOSC_XT                          00003FF9
_HS_OSC                           00003FFA
_IDLOC0                           00002000
_IDLOC1                           00002001
_IDLOC2                           00002002
_IDLOC3                           00002003
_IESO_OFF                         00003BFF
_IESO_ON                          00003FFF
_INTOSC                           00003FFD
_INTOSCIO                         00003FFC
_INTRC_OSC_CLKOUT                 00003FFD
_INTRC_OSC_NOCLKOUT               00003FFC
_LP_OSC                           00003FF8
_MAIN_PROG_00B7                   000000B7
_MAIN_PROG_010B                   0000010B
_MAIN_PROG_010D                   0000010D
_MAIN_PROG_0110                   00000110
_MAIN_PROG_0111                   00000111
_MAIN_PROG_0112                   00000112
_MAIN_PROG_011C                   0000011C
_MAIN_PROG_0144                   00000144
_MAIN_PROG_0147                   00000147
_MCLRE_OFF                        00003FDF
_MCLRE_ON                         00003FFF
_PWRTE_OFF                        00003FFF
_PWRTE_ON                         00003FEF
_WDTE_OFF                         00003FF7
_WDTE_ON                          00003FFF
_WDT_OFF                          00003FF7
_WDT_ON                           00003FFF
_XT_OSC                           00003FF9
__16F690                          00000001
alarmOn                           00000056
buttonClicked                     00000048
MPASM 5.68                   214505927P4.ASM   9-25-2016  16:26:42         PAGE 29


SYMBOL TABLE
  LABEL                             VALUE 

d1                                00000031
d2                                00000032
d3                                00000033
flag                              00000034
flickSpeed                        00000055
isFour                            00000035
mode                              00000054
temp                              00000047
temp1                             00000043
tempFlag                          00000036
tempHigh                          00000053
tempLow                           00000052
temperature                       00000051
timer                             00000037

Errors   :     0
Warnings :    28 reported,     0 suppressed
Messages :    21 reported,     0 suppressed

